; Function Attrs: mustprogress nounwind uwtable
define hidden void @_ZN13TemplateTable6dconstEi(i32 noundef %0) local_unnamed_addr #0 align 2 {
  %2 = alloca %class.AddressLiteral, align 8
  %3 = alloca %class.ExternalAddress, align 8
  tail call void @_ZN13TemplateTable10transitionE8TosStateS0_(i32 noundef 9, i32 noundef 7) #8
  %4 = load i32, ptr @UseSSE, align 4
  %5 = icmp sgt i32 %4, 1
  br i1 %5, label %6, label %24

6:                                                ; preds = %1
  switch i32 %0, label %22 [
    i32 0, label %7
    i32 1, label %12
  ]

7:                                                ; preds = %6
  %8 = load ptr, ptr @_ZN13TemplateTable5_masmE, align 8
  %9 = load i8, ptr @PrintInterpreter, align 1
  %10 = trunc i8 %9 to i1
  br i1 %10, label %11, label %_ZN12Disassembler4hookI25InterpreterMacroAssemblerEEPT_PKciS3_.exit

11:                                               ; preds = %7
  tail call void @_ZN12Disassembler5_hookEPKciP14MacroAssembler(ptr noundef nonnull @.str, i32 noundef 334, ptr noundef %8) #8
  br label %_ZN12Disassembler4hookI25InterpreterMacroAssemblerEEPT_PKciS3_.exit

_ZN12Disassembler4hookI25InterpreterMacroAssemblerEEPT_PKciS3_.exit: ; preds = %7, %11
  tail call void @_ZN14MacroAssembler5xorpdE11XMMRegisterS0_(ptr noundef nonnull align 8 dereferenceable(40) %8, i32 0, i32 0) #8
  br label %26

12:                                               ; preds = %6
  %13 = load ptr, ptr @_ZN13TemplateTable5_masmE, align 8
  %14 = load i8, ptr @PrintInterpreter, align 1
  %15 = trunc i8 %14 to i1
  br i1 %15, label %16, label %_ZN12Disassembler4hookI25InterpreterMacroAssemblerEEPT_PKciS3_.exit4

16:                                               ; preds = %12
  tail call void @_ZN12Disassembler5_hookEPKciP14MacroAssembler(ptr noundef nonnull @.str, i32 noundef 337, ptr noundef %13) #8
  br label %_ZN12Disassembler4hookI25InterpreterMacroAssemblerEEPT_PKciS3_.exit4

_ZN12Disassembler4hookI25InterpreterMacroAssemblerEEPT_PKciS3_.exit4: ; preds = %12, %16
  call void @_ZN14AddressLiteralC2EPhN9relocInfo9relocTypeE(ptr noundef nonnull align 8 dereferenceable(56) %3, ptr noundef nonnull @_ZZN13TemplateTable6dconstEiE3one, i32 noundef 7) #8
  %17 = load ptr, ptr %3, align 8
  %18 = getelementptr inbounds i8, ptr %17, i64 16
  %19 = load ptr, ptr %18, align 8
  call void %19(ptr noundef nonnull align 8 dereferenceable(20) %3, ptr noundef nonnull align 8 dereferenceable(40) %2) #8
  %20 = getelementptr inbounds i8, ptr %2, i64 40
  %21 = getelementptr inbounds i8, ptr %3, i64 40
  call void @llvm.memcpy.p0.p0.i64(ptr noundef nonnull align 8 dereferenceable(16) %20, ptr noundef nonnull align 8 dereferenceable(16) %21, i64 16, i1 false)
  call void @_ZN14MacroAssembler6movdblE11XMMRegister14AddressLiteral8Register(ptr noundef nonnull align 8 dereferenceable(40) %13, i32 0, ptr noundef nonnull %2, i32 10) #8
  br label %26

22:                                               ; preds = %6
  %23 = load ptr, ptr @g_assert_poison, align 8
  store i8 88, ptr %23, align 1
  tail call void @_Z28report_should_not_reach_herePKci(ptr noundef nonnull @.str, i32 noundef 340) #9
  unreachable

24:                                               ; preds = %1
  %25 = load ptr, ptr @g_assert_poison, align 8
  store i8 88, ptr %25, align 1
  tail call void @_Z28report_should_not_reach_herePKci(ptr noundef nonnull @.str, i32 noundef 345) #9
  unreachable

26:                                               ; preds = %_ZN12Disassembler4hookI25InterpreterMacroAssemblerEEPT_PKciS3_.exit, %_ZN12Disassembler4hookI25InterpreterMacroAssemblerEEPT_PKciS3_.exit4
  ret void
}